; ModuleID = '17/738.c'
source_filename = "17/738.c"
target datalayout = "e-m:e-p270:32:32-p271:32:32-p272:64:64-i64:64-f80:128-n8:16:32:64-S128"
target triple = "x86_64-pc-linux-gnu"

@.str = private unnamed_addr constant [3 x i8] c"%s\00", align 1
@.str.1 = private unnamed_addr constant [4 x i8] c"%s\0A\00", align 1
@.str.2 = private unnamed_addr constant [3 x i8] c"%c\00", align 1
@.str.3 = private unnamed_addr constant [2 x i8] c"\0A\00", align 1

; Function Attrs: noinline nounwind uwtable
define dso_local i32 @main() #0 {
  %1 = alloca i32, align 4
  %2 = alloca i32, align 4
  %3 = alloca i32, align 4
  %4 = alloca i32, align 4
  %5 = alloca i32, align 4
  %6 = alloca [102 x i8], align 16
  %7 = alloca [102 x i8], align 16
  %8 = alloca [102 x i32], align 16
  store i32 0, i32* %1, align 4
  %9 = bitcast [102 x i8]* %6 to i8*
  call void @llvm.memset.p0i8.i64(i8* align 16 %9, i8 0, i64 102, i1 false)
  %10 = bitcast [102 x i8]* %7 to i8*
  call void @llvm.memset.p0i8.i64(i8* align 16 %10, i8 0, i64 102, i1 false)
  br label %11

11:                                               ; preds = %86, %0
  %12 = getelementptr inbounds [102 x i8], [102 x i8]* %6, i64 0, i64 0
  %13 = call i32 (i8*, ...) @__isoc99_scanf(i8* getelementptr inbounds ([3 x i8], [3 x i8]* @.str, i64 0, i64 0), i8* %12)
  %14 = icmp ne i32 %13, -1
  br i1 %14, label %15, label %88

15:                                               ; preds = %11
  %16 = getelementptr inbounds [102 x i8], [102 x i8]* %6, i64 0, i64 0
  %17 = call i32 (i8*, ...) @printf(i8* getelementptr inbounds ([4 x i8], [4 x i8]* @.str.1, i64 0, i64 0), i8* %16)
  %18 = getelementptr inbounds [102 x i8], [102 x i8]* %6, i64 0, i64 0
  %19 = call i64 @strlen(i8* %18) #4
  %20 = trunc i64 %19 to i32
  store i32 %20, i32* %4, align 4
  store i32 0, i32* %5, align 4
  store i32 0, i32* %2, align 4
  br label %21

21:                                               ; preds = %67, %15
  %22 = load i32, i32* %2, align 4
  %23 = load i32, i32* %4, align 4
  %24 = sub nsw i32 %23, 1
  %25 = icmp sle i32 %22, %24
  br i1 %25, label %26, label %70

26:                                               ; preds = %21
  %27 = load i32, i32* %2, align 4
  %28 = sext i32 %27 to i64
  %29 = getelementptr inbounds [102 x i8], [102 x i8]* %6, i64 0, i64 %28
  %30 = load i8, i8* %29, align 1
  %31 = sext i8 %30 to i32
  switch i32 %31, label %62 [
    i32 40, label %32
    i32 41, label %42
  ]

32:                                               ; preds = %26
  %33 = load i32, i32* %5, align 4
  %34 = add nsw i32 %33, 1
  store i32 %34, i32* %5, align 4
  %35 = load i32, i32* %2, align 4
  %36 = load i32, i32* %5, align 4
  %37 = sext i32 %36 to i64
  %38 = getelementptr inbounds [102 x i32], [102 x i32]* %8, i64 0, i64 %37
  store i32 %35, i32* %38, align 4
  %39 = load i32, i32* %2, align 4
  %40 = sext i32 %39 to i64
  %41 = getelementptr inbounds [102 x i8], [102 x i8]* %7, i64 0, i64 %40
  store i8 36, i8* %41, align 1
  br label %66

42:                                               ; preds = %26
  %43 = load i32, i32* %5, align 4
  %44 = icmp ne i32 %43, 0
  br i1 %44, label %45, label %57

45:                                               ; preds = %42
  %46 = load i32, i32* %5, align 4
  %47 = sext i32 %46 to i64
  %48 = getelementptr inbounds [102 x i32], [102 x i32]* %8, i64 0, i64 %47
  %49 = load i32, i32* %48, align 4
  %50 = sext i32 %49 to i64
  %51 = getelementptr inbounds [102 x i8], [102 x i8]* %7, i64 0, i64 %50
  store i8 32, i8* %51, align 1
  %52 = load i32, i32* %2, align 4
  %53 = sext i32 %52 to i64
  %54 = getelementptr inbounds [102 x i8], [102 x i8]* %7, i64 0, i64 %53
  store i8 32, i8* %54, align 1
  %55 = load i32, i32* %5, align 4
  %56 = sub nsw i32 %55, 1
  store i32 %56, i32* %5, align 4
  br label %61

57:                                               ; preds = %42
  %58 = load i32, i32* %2, align 4
  %59 = sext i32 %58 to i64
  %60 = getelementptr inbounds [102 x i8], [102 x i8]* %7, i64 0, i64 %59
  store i8 63, i8* %60, align 1
  br label %61

61:                                               ; preds = %57, %45
  br label %66

62:                                               ; preds = %26
  %63 = load i32, i32* %2, align 4
  %64 = sext i32 %63 to i64
  %65 = getelementptr inbounds [102 x i8], [102 x i8]* %7, i64 0, i64 %64
  store i8 32, i8* %65, align 1
  br label %66

66:                                               ; preds = %62, %61, %32
  br label %67

67:                                               ; preds = %66
  %68 = load i32, i32* %2, align 4
  %69 = add nsw i32 %68, 1
  store i32 %69, i32* %2, align 4
  br label %21

70:                                               ; preds = %21
  store i32 0, i32* %2, align 4
  br label %71

71:                                               ; preds = %83, %70
  %72 = load i32, i32* %2, align 4
  %73 = load i32, i32* %4, align 4
  %74 = sub nsw i32 %73, 1
  %75 = icmp sle i32 %72, %74
  br i1 %75, label %76, label %86

76:                                               ; preds = %71
  %77 = load i32, i32* %2, align 4
  %78 = sext i32 %77 to i64
  %79 = getelementptr inbounds [102 x i8], [102 x i8]* %7, i64 0, i64 %78
  %80 = load i8, i8* %79, align 1
  %81 = sext i8 %80 to i32
  %82 = call i32 (i8*, ...) @printf(i8* getelementptr inbounds ([3 x i8], [3 x i8]* @.str.2, i64 0, i64 0), i32 %81)
  br label %83

83:                                               ; preds = %76
  %84 = load i32, i32* %2, align 4
  %85 = add nsw i32 %84, 1
  store i32 %85, i32* %2, align 4
  br label %71

86:                                               ; preds = %71
  %87 = call i32 (i8*, ...) @printf(i8* getelementptr inbounds ([2 x i8], [2 x i8]* @.str.3, i64 0, i64 0))
  br label %11

88:                                               ; preds = %11
  ret i32 0
}

; Function Attrs: argmemonly nounwind willreturn
declare void @llvm.memset.p0i8.i64(i8* nocapture writeonly, i8, i64, i1 immarg) #1

declare dso_local i32 @__isoc99_scanf(i8*, ...) #2

declare dso_local i32 @printf(i8*, ...) #2

; Function Attrs: nounwind readonly
declare dso_local i64 @strlen(i8*) #3


!llvm.module.flags = !{!0}
!llvm.ident = !{!1}

!0 = !{i32 1, !"wchar_size", i32 4}
!1 = !{!"clang version 10.0.0-4ubuntu1 "}
